target datalayout = "e-m:e-p270:32:32-p271:32:32-p272:64:64-i64:64-i128:128-f80:128-n8:16:32:64-S128"
target triple = "x86_64-unknown-linux-gnu"

%"class.icu_75::NFSubstitution" = type { %"class.icu_75::UObject", i32, ptr, ptr }
%"class.icu_75::UObject" = type { ptr }
%"class.icu_75::FractionalPartSubstitution" = type <{ %"class.icu_75::NFSubstitution", i8, i8, [6 x i8] }>
%"class.icu_75::number::impl::DecimalQuantity" = type <{ %"class.icu_75::IFixedDecimal", i8, [3 x i8], i32, i32, i8, i8, [2 x i8], double, i32, i32, i32, i32, %union.anon.2, i8, i8, [6 x i8] }>
%"class.icu_75::IFixedDecimal" = type { ptr }
%union.anon.2 = type { %struct.anon.3 }
%struct.anon.3 = type { ptr, i32 }

; Function Attrs: mustprogress nounwind uwtable
define linkonce_odr noundef ptr @_ZNK6icu_7514NFSubstitution10getRuleSetEv(ptr noundef nonnull align 8 dereferenceable(32) %this) #0 comdat align 2 {
entry:
  %this.addr = alloca ptr, align 8
  store ptr %this, ptr %this.addr, align 8
  %this1 = load ptr, ptr %this.addr, align 8
  %ruleSet = getelementptr inbounds %"class.icu_75::NFSubstitution", ptr %this1, i32 0, i32 2
  %0 = load ptr, ptr %ruleSet, align 8
  ret ptr %0
}

; Function Attrs: mustprogress uwtable
define linkonce_odr noundef nonnull align 8 dereferenceable(64) ptr @_ZN6icu_7513UnicodeString6insertEiDs(ptr noundef nonnull align 8 dereferenceable(64) %this, i32 noundef %start, i16 noundef zeroext %srcChar) #2 comdat align 2 {
entry:
  %this.addr = alloca ptr, align 8
  %start.addr = alloca i32, align 4
  %srcChar.addr = alloca i16, align 2
  store ptr %this, ptr %this.addr, align 8
  store i32 %start, ptr %start.addr, align 4
  store i16 %srcChar, ptr %srcChar.addr, align 2
  %this1 = load ptr, ptr %this.addr, align 8
  %0 = load i32, ptr %start.addr, align 4
  %call = call noundef nonnull align 8 dereferenceable(64) ptr @_ZN6icu_7513UnicodeString9doReplaceEiiPKDsii(ptr noundef nonnull align 8 dereferenceable(64) %this1, i32 noundef %0, i32 noundef 0, ptr noundef %srcChar.addr, i32 noundef 0, i32 noundef 1)
  ret ptr %call
}

; Function Attrs: mustprogress nounwind uwtable
define linkonce_odr noundef i32 @_ZNK6icu_7514NFSubstitution6getPosEv(ptr noundef nonnull align 8 dereferenceable(32) %this) #0 comdat align 2 {
entry:
  %this.addr = alloca ptr, align 8
  store ptr %this, ptr %this.addr, align 8
  %this1 = load ptr, ptr %this.addr, align 8
  %pos = getelementptr inbounds %"class.icu_75::NFSubstitution", ptr %this1, i32 0, i32 1
  %0 = load i32, ptr %pos, align 8
  ret i32 %0
}

; Function Attrs: mustprogress uwtable
define void @_ZNK6icu_7526FractionalPartSubstitution14doSubstitutionEdRNS_13UnicodeStringEiiR10UErrorCode(ptr noundef nonnull align 8 dereferenceable(34) %this, double noundef %number, ptr noundef nonnull align 8 dereferenceable(64) %toInsertInto, i32 noundef %_pos, i32 noundef %recursionCount, ptr noundef nonnull align 4 dereferenceable(4) %status) unnamed_addr #2 align 2 personality ptr @__gxx_personality_v0 {
entry:
  %this.addr = alloca ptr, align 8
  %number.addr = alloca double, align 8
  %toInsertInto.addr = alloca ptr, align 8
  %_pos.addr = alloca i32, align 4
  %recursionCount.addr = alloca i32, align 4
  %status.addr = alloca ptr, align 8
  %dl = alloca %"class.icu_75::number::impl::DecimalQuantity", align 8
  %exn.slot = alloca ptr, align 8
  %ehselector.slot = alloca i32, align 4
  %pad = alloca i8, align 1
  %didx = alloca i32, align 4
  %digit = alloca i64, align 8
  store ptr %this, ptr %this.addr, align 8
  store double %number, ptr %number.addr, align 8
  store ptr %toInsertInto, ptr %toInsertInto.addr, align 8
  store i32 %_pos, ptr %_pos.addr, align 4
  store i32 %recursionCount, ptr %recursionCount.addr, align 4
  store ptr %status, ptr %status.addr, align 8
  %this1 = load ptr, ptr %this.addr, align 8
  %byDigits = getelementptr inbounds %"class.icu_75::FractionalPartSubstitution", ptr %this1, i32 0, i32 1
  %0 = load i8, ptr %byDigits, align 8
  %tobool = icmp ne i8 %0, 0
  br i1 %tobool, label %if.else, label %if.then

if.then:                                          ; preds = %entry
  %1 = load double, ptr %number.addr, align 8
  %2 = load ptr, ptr %toInsertInto.addr, align 8
  %3 = load i32, ptr %_pos.addr, align 4
  %4 = load i32, ptr %recursionCount.addr, align 4
  %5 = load ptr, ptr %status.addr, align 8
  call void @_ZNK6icu_7514NFSubstitution14doSubstitutionEdRNS_13UnicodeStringEiiR10UErrorCode(ptr noundef nonnull align 8 dereferenceable(32) %this1, double noundef %1, ptr noundef nonnull align 8 dereferenceable(64) %2, i32 noundef %3, i32 noundef %4, ptr noundef nonnull align 4 dereferenceable(4) %5)
  br label %if.end30

if.else:                                          ; preds = %entry
  call void @_ZN6icu_756number4impl15DecimalQuantityC1Ev(ptr noundef nonnull align 8 dereferenceable(66) %dl)
  %6 = load double, ptr %number.addr, align 8
  %call = invoke noundef nonnull align 8 dereferenceable(66) ptr @_ZN6icu_756number4impl15DecimalQuantity11setToDoubleEd(ptr noundef nonnull align 8 dereferenceable(66) %dl, double noundef %6)
          to label %invoke.cont unwind label %lpad

invoke.cont:                                      ; preds = %if.else
  %7 = load ptr, ptr %status.addr, align 8
  invoke void @_ZN6icu_756number4impl15DecimalQuantity16roundToMagnitudeEi25UNumberFormatRoundingModeR10UErrorCode(ptr noundef nonnull align 8 dereferenceable(66) %dl, i32 noundef -20, i32 noundef 4, ptr noundef nonnull align 4 dereferenceable(4) %7)
          to label %invoke.cont2 unwind label %lpad

invoke.cont2:                                     ; preds = %invoke.cont
  store i8 0, ptr %pad, align 1
  %call4 = invoke noundef i32 @_ZNK6icu_756number4impl15DecimalQuantity24getLowerDisplayMagnitudeEv(ptr noundef nonnull align 8 dereferenceable(66) %dl)
          to label %invoke.cont3 unwind label %lpad

invoke.cont3:                                     ; preds = %invoke.cont2
  store i32 %call4, ptr %didx, align 4
  br label %for.cond

for.cond:                                         ; preds = %for.inc, %invoke.cont3
  %8 = load i32, ptr %didx, align 4
  %cmp = icmp slt i32 %8, 0
  br i1 %cmp, label %for.body, label %for.end

for.body:                                         ; preds = %for.cond
  %9 = load i8, ptr %pad, align 1
  %tobool5 = icmp ne i8 %9, 0
  br i1 %tobool5, label %land.lhs.true, label %if.else12

land.lhs.true:                                    ; preds = %for.body
  %useSpaces = getelementptr inbounds %"class.icu_75::FractionalPartSubstitution", ptr %this1, i32 0, i32 2
  %10 = load i8, ptr %useSpaces, align 1
  %tobool6 = icmp ne i8 %10, 0
  br i1 %tobool6, label %if.then7, label %if.else12

if.then7:                                         ; preds = %land.lhs.true
  %11 = load ptr, ptr %toInsertInto.addr, align 8
  %12 = load i32, ptr %_pos.addr, align 4
  %call9 = invoke noundef i32 @_ZNK6icu_7514NFSubstitution6getPosEv(ptr noundef nonnull align 8 dereferenceable(32) %this1)
          to label %invoke.cont8 unwind label %lpad

invoke.cont8:                                     ; preds = %if.then7
  %add = add nsw i32 %12, %call9
  %call11 = invoke noundef nonnull align 8 dereferenceable(64) ptr @_ZN6icu_7513UnicodeString6insertEiDs(ptr noundef nonnull align 8 dereferenceable(64) %11, i32 noundef %add, i16 noundef zeroext 32)
          to label %invoke.cont10 unwind label %lpad

invoke.cont10:                                    ; preds = %invoke.cont8
  br label %if.end

lpad:                                             ; preds = %invoke.cont25, %invoke.cont23, %if.then22, %invoke.cont17, %invoke.cont15, %invoke.cont13, %if.end, %invoke.cont8, %if.then7, %invoke.cont2, %invoke.cont, %if.else
  %13 = landingpad { ptr, i32 }
          cleanup
  %14 = extractvalue { ptr, i32 } %13, 0
  store ptr %14, ptr %exn.slot, align 8
  %15 = extractvalue { ptr, i32 } %13, 1
  store i32 %15, ptr %ehselector.slot, align 4
  call void @_ZN6icu_756number4impl15DecimalQuantityD1Ev(ptr noundef nonnull align 8 dereferenceable(66) %dl) #6
  br label %eh.resume

if.else12:                                        ; preds = %land.lhs.true, %for.body
  store i8 1, ptr %pad, align 1
  br label %if.end

if.end:                                           ; preds = %if.else12, %invoke.cont10
  %16 = load i32, ptr %didx, align 4
  %call14 = invoke noundef signext i8 @_ZNK6icu_756number4impl15DecimalQuantity8getDigitEi(ptr noundef nonnull align 8 dereferenceable(66) %dl, i32 noundef %16)
          to label %invoke.cont13 unwind label %lpad

invoke.cont13:                                    ; preds = %if.end
  %conv = sext i8 %call14 to i64
  store i64 %conv, ptr %digit, align 8
  %call16 = invoke noundef ptr @_ZNK6icu_7514NFSubstitution10getRuleSetEv(ptr noundef nonnull align 8 dereferenceable(32) %this1)
          to label %invoke.cont15 unwind label %lpad

invoke.cont15:                                    ; preds = %invoke.cont13
  %17 = load i64, ptr %digit, align 8
  %18 = load ptr, ptr %toInsertInto.addr, align 8
  %19 = load i32, ptr %_pos.addr, align 4
  %call18 = invoke noundef i32 @_ZNK6icu_7514NFSubstitution6getPosEv(ptr noundef nonnull align 8 dereferenceable(32) %this1)
          to label %invoke.cont17 unwind label %lpad

invoke.cont17:                                    ; preds = %invoke.cont15
  %add19 = add nsw i32 %19, %call18
  %20 = load i32, ptr %recursionCount.addr, align 4
  %21 = load ptr, ptr %status.addr, align 8
  invoke void @_ZNK6icu_759NFRuleSet6formatElRNS_13UnicodeStringEiiR10UErrorCode(ptr noundef nonnull align 8 dereferenceable(163) %call16, i64 noundef %17, ptr noundef nonnull align 8 dereferenceable(64) %18, i32 noundef %add19, i32 noundef %20, ptr noundef nonnull align 4 dereferenceable(4) %21)
          to label %invoke.cont20 unwind label %lpad

invoke.cont20:                                    ; preds = %invoke.cont17
  br label %for.inc

for.inc:                                          ; preds = %invoke.cont20
  %22 = load i32, ptr %didx, align 4
  %inc = add nsw i32 %22, 1
  store i32 %inc, ptr %didx, align 4
  br label %for.cond, !llvm.loop !5

for.end:                                          ; preds = %for.cond
  %23 = load i8, ptr %pad, align 1
  %tobool21 = icmp ne i8 %23, 0
  br i1 %tobool21, label %if.end29, label %if.then22

if.then22:                                        ; preds = %for.end
  %call24 = invoke noundef ptr @_ZNK6icu_7514NFSubstitution10getRuleSetEv(ptr noundef nonnull align 8 dereferenceable(32) %this1)
          to label %invoke.cont23 unwind label %lpad

invoke.cont23:                                    ; preds = %if.then22
  %24 = load ptr, ptr %toInsertInto.addr, align 8
  %25 = load i32, ptr %_pos.addr, align 4
  %call26 = invoke noundef i32 @_ZNK6icu_7514NFSubstitution6getPosEv(ptr noundef nonnull align 8 dereferenceable(32) %this1)
          to label %invoke.cont25 unwind label %lpad

invoke.cont25:                                    ; preds = %invoke.cont23
  %add27 = add nsw i32 %25, %call26
  %26 = load i32, ptr %recursionCount.addr, align 4
  %27 = load ptr, ptr %status.addr, align 8
  invoke void @_ZNK6icu_759NFRuleSet6formatElRNS_13UnicodeStringEiiR10UErrorCode(ptr noundef nonnull align 8 dereferenceable(163) %call24, i64 noundef 0, ptr noundef nonnull align 8 dereferenceable(64) %24, i32 noundef %add27, i32 noundef %26, ptr noundef nonnull align 4 dereferenceable(4) %27)
          to label %invoke.cont28 unwind label %lpad

invoke.cont28:                                    ; preds = %invoke.cont25
  br label %if.end29

if.end29:                                         ; preds = %invoke.cont28, %for.end
  call void @_ZN6icu_756number4impl15DecimalQuantityD1Ev(ptr noundef nonnull align 8 dereferenceable(66) %dl) #6
  br label %if.end30

if.end30:                                         ; preds = %if.end29, %if.then
  ret void

eh.resume:                                        ; preds = %lpad
  %exn = load ptr, ptr %exn.slot, align 8
  %sel = load i32, ptr %ehselector.slot, align 4
  %lpad.val = insertvalue { ptr, i32 } poison, ptr %exn, 0
  %lpad.val31 = insertvalue { ptr, i32 } %lpad.val, i32 %sel, 1
  resume { ptr, i32 } %lpad.val31
}