; Function Attrs: mustprogress uwtable
define void @_ZNK6icu_7526FractionalPartSubstitution14doSubstitutionEdRNS_13UnicodeStringEiiR10UErrorCode(ptr noundef nonnull align 8 dereferenceable(34) %this, double noundef %number, ptr noundef nonnull align 8 dereferenceable(64) %toInsertInto, i32 noundef %_pos, i32 noundef %recursionCount, ptr noundef nonnull align 4 dereferenceable(4) %status) unnamed_addr #2 align 2 personality ptr @__gxx_personality_v0 {
entry:
  %srcChar.addr.i = alloca i16, align 2
  %dl = alloca %"class.icu_75::number::impl::DecimalQuantity", align 8
  %byDigits = getelementptr inbounds i8, ptr %this, i64 32
  %0 = load i8, ptr %byDigits, align 8
  %tobool.not = icmp eq i8 %0, 0
  br i1 %tobool.not, label %if.then, label %if.else

if.then:                                          ; preds = %entry
  tail call void @_ZNK6icu_7514NFSubstitution14doSubstitutionEdRNS_13UnicodeStringEiiR10UErrorCode(ptr noundef nonnull align 8 dereferenceable(32) %this, double noundef %number, ptr noundef nonnull align 8 dereferenceable(64) %toInsertInto, i32 noundef %_pos, i32 noundef %recursionCount, ptr noundef nonnull align 4 dereferenceable(4) %status)
  br label %if.end30

if.else:                                          ; preds = %entry
  call void @_ZN6icu_756number4impl15DecimalQuantityC1Ev(ptr noundef nonnull align 8 dereferenceable(66) %dl)
  %call = invoke noundef nonnull align 8 dereferenceable(66) ptr @_ZN6icu_756number4impl15DecimalQuantity11setToDoubleEd(ptr noundef nonnull align 8 dereferenceable(66) %dl, double noundef %number)
          to label %invoke.cont unwind label %lpad.loopexit.split-lp

invoke.cont:                                      ; preds = %if.else
  invoke void @_ZN6icu_756number4impl15DecimalQuantity16roundToMagnitudeEi25UNumberFormatRoundingModeR10UErrorCode(ptr noundef nonnull align 8 dereferenceable(66) %dl, i32 noundef -20, i32 noundef 4, ptr noundef nonnull align 4 dereferenceable(4) %status)
          to label %invoke.cont2 unwind label %lpad.loopexit.split-lp

invoke.cont2:                                     ; preds = %invoke.cont
  %call4 = invoke noundef i32 @_ZNK6icu_756number4impl15DecimalQuantity24getLowerDisplayMagnitudeEv(ptr noundef nonnull align 8 dereferenceable(66) %dl)
          to label %for.cond.preheader unwind label %lpad.loopexit.split-lp

for.cond.preheader:                               ; preds = %invoke.cont2
  %cmp23 = icmp slt i32 %call4, 0
  br i1 %cmp23, label %for.body.lr.ph, label %if.then22.critedge

for.body.lr.ph:                                   ; preds = %for.cond.preheader
  %useSpaces = getelementptr inbounds i8, ptr %this, i64 33
  %pos.i = getelementptr inbounds i8, ptr %this, i64 8
  %ruleSet.i = getelementptr inbounds i8, ptr %this, i64 16
  br label %for.body

for.body:                                         ; preds = %for.body.lr.ph, %for.inc
  %tobool21.not25 = phi i1 [ true, %for.body.lr.ph ], [ false, %for.inc ]
  %didx.024 = phi i32 [ %call4, %for.body.lr.ph ], [ %inc, %for.inc ]
  %1 = load i8, ptr %useSpaces, align 1
  %tobool6.not = icmp eq i8 %1, 0
  %or.cond = select i1 %tobool21.not25, i1 true, i1 %tobool6.not
  br i1 %or.cond, label %if.end, label %if.then7

if.then7:                                         ; preds = %for.body
  %2 = load i32, ptr %pos.i, align 8
  %add = add nsw i32 %2, %_pos
  call void @llvm.lifetime.start.p0(i64 2, ptr nonnull %srcChar.addr.i)
  store i16 32, ptr %srcChar.addr.i, align 2
  %call.i16 = invoke noundef nonnull align 8 dereferenceable(64) ptr @_ZN6icu_7513UnicodeString9doReplaceEiiPKDsii(ptr noundef nonnull align 8 dereferenceable(64) %toInsertInto, i32 noundef %add, i32 noundef 0, ptr noundef nonnull %srcChar.addr.i, i32 noundef 0, i32 noundef 1)
          to label %_ZN6icu_7513UnicodeString6insertEiDs.exit unwind label %lpad.loopexit

_ZN6icu_7513UnicodeString6insertEiDs.exit:        ; preds = %if.then7
  call void @llvm.lifetime.end.p0(i64 2, ptr nonnull %srcChar.addr.i)
  br label %if.end

lpad.loopexit:                                    ; preds = %if.end, %invoke.cont13, %if.then7
  %lpad.loopexit20 = landingpad { ptr, i32 }
          cleanup
  br label %lpad

lpad.loopexit.split-lp:                           ; preds = %if.else, %invoke.cont, %invoke.cont2, %if.then22.critedge
  %lpad.loopexit.split-lp21 = landingpad { ptr, i32 }
          cleanup
  br label %lpad

lpad:                                             ; preds = %lpad.loopexit.split-lp, %lpad.loopexit
  %lpad.phi = phi { ptr, i32 } [ %lpad.loopexit20, %lpad.loopexit ], [ %lpad.loopexit.split-lp21, %lpad.loopexit.split-lp ]
  call void @_ZN6icu_756number4impl15DecimalQuantityD1Ev(ptr noundef nonnull align 8 dereferenceable(66) %dl) #11
  resume { ptr, i32 } %lpad.phi

if.end:                                           ; preds = %_ZN6icu_7513UnicodeString6insertEiDs.exit, %for.body
  %call14 = invoke noundef signext i8 @_ZNK6icu_756number4impl15DecimalQuantity8getDigitEi(ptr noundef nonnull align 8 dereferenceable(66) %dl, i32 noundef %didx.024)
          to label %invoke.cont13 unwind label %lpad.loopexit

invoke.cont13:                                    ; preds = %if.end
  %conv = sext i8 %call14 to i64
  %3 = load ptr, ptr %ruleSet.i, align 8
  %4 = load i32, ptr %pos.i, align 8
  %add19 = add nsw i32 %4, %_pos
  invoke void @_ZNK6icu_759NFRuleSet6formatElRNS_13UnicodeStringEiiR10UErrorCode(ptr noundef nonnull align 8 dereferenceable(163) %3, i64 noundef %conv, ptr noundef nonnull align 8 dereferenceable(64) %toInsertInto, i32 noundef %add19, i32 noundef %recursionCount, ptr noundef nonnull align 4 dereferenceable(4) %status)
          to label %for.inc unwind label %lpad.loopexit

for.inc:                                          ; preds = %invoke.cont13
  %inc = add i32 %didx.024, 1
  %exitcond.not = icmp eq i32 %inc, 0
  br i1 %exitcond.not, label %if.end29, label %for.body, !llvm.loop !9

if.then22.critedge:                               ; preds = %for.cond.preheader
  %ruleSet.i18 = getelementptr inbounds i8, ptr %this, i64 16
  %5 = load ptr, ptr %ruleSet.i18, align 8
  %pos.i19 = getelementptr inbounds i8, ptr %this, i64 8
  %6 = load i32, ptr %pos.i19, align 8
  %add27 = add nsw i32 %6, %_pos
  invoke void @_ZNK6icu_759NFRuleSet6formatElRNS_13UnicodeStringEiiR10UErrorCode(ptr noundef nonnull align 8 dereferenceable(163) %5, i64 noundef 0, ptr noundef nonnull align 8 dereferenceable(64) %toInsertInto, i32 noundef %add27, i32 noundef %recursionCount, ptr noundef nonnull align 4 dereferenceable(4) %status)
          to label %if.end29 unwind label %lpad.loopexit.split-lp

if.end29:                                         ; preds = %for.inc, %if.then22.critedge
  call void @_ZN6icu_756number4impl15DecimalQuantityD1Ev(ptr noundef nonnull align 8 dereferenceable(66) %dl) #11
  br label %if.end30

if.end30:                                         ; preds = %if.end29, %if.then
  ret void
}